target datalayout = "e-m:e-p270:32:32-p271:32:32-p272:64:64-i64:64-i128:128-f80:128-n8:16:32:64-S128"
target triple = "x86_64-pc-linux-gnu"

%"class.net::QuicReceivedPacketManager::EntropyTracker" = type { %"class.std::deque", i8, i64, i64 }
%"class.std::deque" = type { %"class.std::_Deque_base" }
%"class.std::_Deque_base" = type { %"struct.std::_Deque_base<std::pair<unsigned char, bool>, std::allocator<std::pair<unsigned char, bool>>>::_Deque_impl" }
%"struct.std::_Deque_base<std::pair<unsigned char, bool>, std::allocator<std::pair<unsigned char, bool>>>::_Deque_impl" = type { %"struct.std::_Deque_base<std::pair<unsigned char, bool>, std::allocator<std::pair<unsigned char, bool>>>::_Deque_impl_data" }
%"struct.std::_Deque_base<std::pair<unsigned char, bool>, std::allocator<std::pair<unsigned char, bool>>>::_Deque_impl_data" = type { ptr, i64, %"struct.std::_Deque_iterator", %"struct.std::_Deque_iterator" }
%"struct.std::_Deque_iterator" = type { ptr, ptr, ptr, ptr }
%"class.net::QuicReceivedPacketManager" = type { %"class.net::QuicReceivedEntropyHashCalculatorInterface", %"class.net::QuicReceivedPacketManager::EntropyTracker", i64, %"struct.net::QuicAckFrame", i8, %"class.net::QuicTime", ptr }
%"class.net::QuicReceivedEntropyHashCalculatorInterface" = type { ptr }
%"struct.net::QuicAckFrame" = type <{ i64, %"class.net::QuicTime::Delta", %"class.std::vector", %"class.net::PacketNumberQueue", i8, i8, i8, i8, [4 x i8] }>
%"class.net::QuicTime::Delta" = type { %"class.base::TimeDelta", i64 }
%"class.base::TimeDelta" = type { i64 }
%"class.std::vector" = type { %"struct.std::_Vector_base" }
%"struct.std::_Vector_base" = type { %"struct.std::_Vector_base<std::pair<unsigned long, net::QuicTime>, std::allocator<std::pair<unsigned long, net::QuicTime>>>::_Vector_impl" }
%"struct.std::_Vector_base<std::pair<unsigned long, net::QuicTime>, std::allocator<std::pair<unsigned long, net::QuicTime>>>::_Vector_impl" = type { %"struct.std::_Vector_base<std::pair<unsigned long, net::QuicTime>, std::allocator<std::pair<unsigned long, net::QuicTime>>>::_Vector_impl_data" }
%"struct.std::_Vector_base<std::pair<unsigned long, net::QuicTime>, std::allocator<std::pair<unsigned long, net::QuicTime>>>::_Vector_impl_data" = type { ptr, ptr, ptr }
%"class.net::PacketNumberQueue" = type { %"class.net::IntervalSet" }
%"class.net::IntervalSet" = type { %"class.std::set" }
%"class.std::set" = type { %"class.std::_Rb_tree" }
%"class.std::_Rb_tree" = type { %"struct.std::_Rb_tree<net::Interval<unsigned long>, net::Interval<unsigned long>, std::_Identity<net::Interval<unsigned long>>, net::IntervalSet<unsigned long>::IntervalComparator>::_Rb_tree_impl" }
%"struct.std::_Rb_tree<net::Interval<unsigned long>, net::Interval<unsigned long>, std::_Identity<net::Interval<unsigned long>>, net::IntervalSet<unsigned long>::IntervalComparator>::_Rb_tree_impl" = type { [8 x i8], %"struct.std::_Rb_tree_header" }
%"struct.std::_Rb_tree_header" = type { %"struct.std::_Rb_tree_node_base", i64 }
%"struct.std::_Rb_tree_node_base" = type { i32, ptr, ptr, ptr }
%"class.net::QuicTime" = type { i64 }

@_ZN3net25QuicReceivedPacketManager14EntropyTrackerC1Ev = unnamed_addr alias void (ptr), ptr @_ZN3net25QuicReceivedPacketManager14EntropyTrackerC2Ev
@_ZN3net25QuicReceivedPacketManager14EntropyTrackerD1Ev = unnamed_addr alias void (ptr), ptr @_ZN3net25QuicReceivedPacketManager14EntropyTrackerD2Ev

; Function Attrs: inlinehint mustprogress nounwind uwtable
define linkonce_odr void @_ZN3net8QuicTimeC2El(ptr noundef nonnull align 8 dereferenceable(8) %0, i64 noundef %1) unnamed_addr #5 comdat align 2 {
  %3 = alloca ptr, align 8
  %4 = alloca i64, align 8
  store ptr %0, ptr %3, align 8, !tbaa !138
  store i64 %1, ptr %4, align 8, !tbaa !22
  %5 = load ptr, ptr %3, align 8
  %6 = getelementptr inbounds nuw %"class.net::QuicTime", ptr %5, i32 0, i32 0
  %7 = load i64, ptr %4, align 8, !tbaa !22
  store i64 %7, ptr %6, align 8, !tbaa !133
  ret void
}

; Function Attrs: mustprogress nounwind uwtable
define linkonce_odr void @_ZN3net42QuicReceivedEntropyHashCalculatorInterfaceD2Ev(ptr noundef nonnull align 8 dereferenceable(8) %0) unnamed_addr #1 comdat align 2 {
  %2 = alloca ptr, align 8
  store ptr %0, ptr %2, align 8, !tbaa !106
  ret void
}

; Function Attrs: inlinehint mustprogress uwtable
define linkonce_odr i64 @_ZN3net8QuicTime4ZeroEv() #6 comdat align 2 {
  %1 = alloca %"class.net::QuicTime", align 8
  call void @_ZN3net8QuicTimeC2El(ptr noundef nonnull align 8 dereferenceable(8) %1, i64 noundef 0)
  %2 = getelementptr inbounds nuw %"class.net::QuicTime", ptr %1, i32 0, i32 0
  %3 = load i64, ptr %2, align 8
  ret i64 %3
}

; Function Attrs: inlinehint mustprogress nounwind uwtable
define linkonce_odr void @_ZN3net42QuicReceivedEntropyHashCalculatorInterfaceC2Ev(ptr noundef nonnull align 8 dereferenceable(8) %0) unnamed_addr #5 comdat align 2 {
  %2 = alloca ptr, align 8
  store ptr %0, ptr %2, align 8, !tbaa !106
  %3 = load ptr, ptr %2, align 8
  store ptr getelementptr inbounds inrange(-16, 24) ({ [5 x ptr] }, ptr @_ZTVN3net42QuicReceivedEntropyHashCalculatorInterfaceE, i32 0, i32 0, i32 2), ptr %3, align 8, !tbaa !77
  ret void
}

; Function Attrs: mustprogress uwtable
define void @_ZN3net25QuicReceivedPacketManagerC2EPNS_19QuicConnectionStatsE(ptr noundef nonnull align 8 dereferenceable(248) %0, ptr noundef %1) unnamed_addr #0 align 2 personality ptr @__gxx_personality_v0 {
  %3 = alloca ptr, align 8
  %4 = alloca ptr, align 8
  %5 = alloca ptr, align 8
  %6 = alloca i32, align 4
  store ptr %0, ptr %3, align 8, !tbaa !73
  store ptr %1, ptr %4, align 8, !tbaa !75
  %7 = load ptr, ptr %3, align 8
  call void @_ZN3net42QuicReceivedEntropyHashCalculatorInterfaceC2Ev(ptr noundef nonnull align 8 dereferenceable(8) %7) #14
  store ptr getelementptr inbounds inrange(-16, 72) ({ [11 x ptr] }, ptr @_ZTVN3net25QuicReceivedPacketManagerE, i32 0, i32 0, i32 2), ptr %7, align 8, !tbaa !77
  %8 = getelementptr inbounds nuw %"class.net::QuicReceivedPacketManager", ptr %7, i32 0, i32 1
  invoke void @_ZN3net25QuicReceivedPacketManager14EntropyTrackerC1Ev(ptr noundef nonnull align 8 dereferenceable(104) %8)
          to label %9 unwind label %24

9:                                                ; preds = %2
  %10 = getelementptr inbounds nuw %"class.net::QuicReceivedPacketManager", ptr %7, i32 0, i32 2
  store i64 0, ptr %10, align 8, !tbaa !79
  %11 = getelementptr inbounds nuw %"class.net::QuicReceivedPacketManager", ptr %7, i32 0, i32 3
  invoke void @_ZN3net12QuicAckFrameC1Ev(ptr noundef nonnull align 8 dereferenceable(100) %11)
          to label %12 unwind label %28

12:                                               ; preds = %9
  %13 = getelementptr inbounds nuw %"class.net::QuicReceivedPacketManager", ptr %7, i32 0, i32 4
  store i8 0, ptr %13, align 8, !tbaa !102
  %14 = getelementptr inbounds nuw %"class.net::QuicReceivedPacketManager", ptr %7, i32 0, i32 5
  %15 = invoke i64 @_ZN3net8QuicTime4ZeroEv()
          to label %16 unwind label %32

16:                                               ; preds = %12
  %17 = getelementptr inbounds nuw %"class.net::QuicTime", ptr %14, i32 0, i32 0
  store i64 %15, ptr %17, align 8
  %18 = getelementptr inbounds nuw %"class.net::QuicReceivedPacketManager", ptr %7, i32 0, i32 6
  %19 = load ptr, ptr %4, align 8, !tbaa !75
  store ptr %19, ptr %18, align 8, !tbaa !103
  %20 = getelementptr inbounds nuw %"class.net::QuicReceivedPacketManager", ptr %7, i32 0, i32 3
  %21 = getelementptr inbounds nuw %"struct.net::QuicAckFrame", ptr %20, i32 0, i32 0
  store i64 0, ptr %21, align 8, !tbaa !104
  %22 = getelementptr inbounds nuw %"class.net::QuicReceivedPacketManager", ptr %7, i32 0, i32 3
  %23 = getelementptr inbounds nuw %"struct.net::QuicAckFrame", ptr %22, i32 0, i32 5
  store i8 0, ptr %23, align 1, !tbaa !105
  ret void

24:                                               ; preds = %2
  %25 = landingpad { ptr, i32 }
          cleanup
  %26 = extractvalue { ptr, i32 } %25, 0
  store ptr %26, ptr %5, align 8
  %27 = extractvalue { ptr, i32 } %25, 1
  store i32 %27, ptr %6, align 4
  br label %37

28:                                               ; preds = %9
  %29 = landingpad { ptr, i32 }
          cleanup
  %30 = extractvalue { ptr, i32 } %29, 0
  store ptr %30, ptr %5, align 8
  %31 = extractvalue { ptr, i32 } %29, 1
  store i32 %31, ptr %6, align 4
  br label %36

32:                                               ; preds = %12
  %33 = landingpad { ptr, i32 }
          cleanup
  %34 = extractvalue { ptr, i32 } %33, 0
  store ptr %34, ptr %5, align 8
  %35 = extractvalue { ptr, i32 } %33, 1
  store i32 %35, ptr %6, align 4
  call void @_ZN3net12QuicAckFrameD1Ev(ptr noundef nonnull align 8 dereferenceable(100) %11) #14
  br label %36

36:                                               ; preds = %32, %28
  call void @_ZN3net25QuicReceivedPacketManager14EntropyTrackerD1Ev(ptr noundef nonnull align 8 dereferenceable(104) %8) #14
  br label %37

37:                                               ; preds = %36, %24
  call void @_ZN3net42QuicReceivedEntropyHashCalculatorInterfaceD2Ev(ptr noundef nonnull align 8 dereferenceable(8) %7) #14
  br label %38

38:                                               ; preds = %37
  %39 = load ptr, ptr %5, align 8
  %40 = load i32, ptr %6, align 4
  %41 = insertvalue { ptr, i32 } poison, ptr %39, 0
  %42 = insertvalue { ptr, i32 } %41, i32 %40, 1
  resume { ptr, i32 } %42
}