; Function Attrs: mustprogress uwtable
define void @_ZN3net25QuicReceivedPacketManagerC2EPNS_19QuicConnectionStatsE(ptr noundef nonnull align 8 dereferenceable(248) initializes((0, 8)) %0, ptr noundef %1) unnamed_addr #0 align 2 personality ptr @__gxx_personality_v0 {
  store ptr getelementptr inbounds nuw inrange(-16, 72) (i8, ptr @_ZTVN3net25QuicReceivedPacketManagerE, i64 16), ptr %0, align 8, !tbaa !57
  %3 = getelementptr inbounds nuw i8, ptr %0, i64 8
  tail call void @_ZN3net25QuicReceivedPacketManager14EntropyTrackerC1Ev(ptr noundef nonnull align 8 dereferenceable(104) %3)
  %4 = getelementptr inbounds nuw i8, ptr %0, i64 112
  store i64 0, ptr %4, align 8, !tbaa !59
  %5 = getelementptr inbounds nuw i8, ptr %0, i64 120
  invoke void @_ZN3net12QuicAckFrameC1Ev(ptr noundef nonnull align 8 dereferenceable(100) %5)
          to label %6 unwind label %11

6:                                                ; preds = %2
  %7 = getelementptr inbounds nuw i8, ptr %0, i64 224
  store i8 0, ptr %7, align 8, !tbaa !83
  %8 = getelementptr inbounds nuw i8, ptr %0, i64 232
  store i64 0, ptr %8, align 8
  %9 = getelementptr inbounds nuw i8, ptr %0, i64 240
  store ptr %1, ptr %9, align 8, !tbaa !84
  store i64 0, ptr %5, align 8, !tbaa !85
  %10 = getelementptr inbounds nuw i8, ptr %0, i64 217
  store i8 0, ptr %10, align 1, !tbaa !86
  ret void

11:                                               ; preds = %2
  %12 = landingpad { ptr, i32 }
          cleanup
  tail call void @_ZN3net25QuicReceivedPacketManager14EntropyTrackerD1Ev(ptr noundef nonnull align 8 dereferenceable(104) %3) #18
  resume { ptr, i32 } %12
}